; Function Attrs: nounwind sspstrong uwtable
define internal i64 @io_buffer_slice(i32 noundef %0, ptr noundef readonly captures(none) %1, i64 noundef %2) #0 {
  %4 = alloca i64, align 8
  %5 = alloca i64, align 8
  %or.cond.i = icmp ugt i32 %0, 2
  br i1 %or.cond.i, label %6, label %rb_check_arity.exit

6:                                                ; preds = %3
  tail call void @rb_error_arity(i32 noundef %0, i32 noundef 0, i32 noundef 2) #26
  unreachable

rb_check_arity.exit:                              ; preds = %3
  call void @llvm.lifetime.start.p0(i64 8, ptr nonnull %4) #25
  call void @llvm.lifetime.start.p0(i64 8, ptr nonnull %5) #25
  %7 = call fastcc ptr @io_buffer_extract_offset_length(i64 noundef %2, i32 noundef %0, ptr noundef %1, ptr noundef %4, ptr noundef %5)
  %8 = load i64, ptr %4, align 8, !tbaa !22
  %9 = load i64, ptr %5, align 8, !tbaa !22
  %10 = getelementptr i8, ptr %7, i64 8
  %.val.i = load i64, ptr %10, align 8, !tbaa !16
  %11 = add i64 %9, %8
  %12 = icmp ugt i64 %11, %.val.i
  br i1 %12, label %13, label %io_buffer_validate_range.exit.i

13:                                               ; preds = %rb_check_arity.exit
  %14 = load i64, ptr @rb_eArgError, align 8, !tbaa !22
  tail call void (i64, ptr, ...) @rb_raise(i64 noundef %14, ptr noundef nonnull @.str.126) #26
  unreachable

io_buffer_validate_range.exit.i:                  ; preds = %rb_check_arity.exit
  %15 = icmp eq i64 %2, 0
  %16 = and i64 %2, 7
  %17 = icmp ne i64 %16, 0
  %18 = or i1 %15, %17
  br i1 %18, label %22, label %19

19:                                               ; preds = %io_buffer_validate_range.exit.i
  %20 = inttoptr i64 %2 to ptr
  %21 = getelementptr inbounds nuw i8, ptr %20, i64 8
  br label %rb_class_of.exit.i

22:                                               ; preds = %io_buffer_validate_range.exit.i
  switch i64 %2, label %25 [
    i64 0, label %rb_class_of.exit.i
    i64 4, label %23
    i64 20, label %24
  ]

23:                                               ; preds = %22
  br label %rb_class_of.exit.i

24:                                               ; preds = %22
  br label %rb_class_of.exit.i

25:                                               ; preds = %22
  %26 = and i64 %2, 1
  %.not.i.i = icmp eq i64 %26, 0
  br i1 %.not.i.i, label %27, label %rb_class_of.exit.i

27:                                               ; preds = %25
  %28 = and i64 %2, 254
  %29 = icmp eq i64 %28, 12
  %spec.select.i.i = select i1 %29, ptr @rb_cSymbol, ptr @rb_cFloat
  br label %rb_class_of.exit.i

rb_class_of.exit.i:                               ; preds = %27, %25, %24, %23, %22, %19
  %.0.in.i.i = phi ptr [ @rb_cNilClass, %23 ], [ @rb_cTrueClass, %24 ], [ %21, %19 ], [ @rb_cFalseClass, %22 ], [ @rb_cInteger, %25 ], [ %spec.select.i.i, %27 ]
  %.0.i.i = load i64, ptr %.0.in.i.i, align 8, !tbaa !22
  %30 = tail call i64 @rb_data_typed_object_zalloc(i64 noundef %.0.i.i, i64 noundef 32, ptr noundef nonnull @rb_io_buffer_type) #25
  %31 = inttoptr i64 %30 to ptr
  %32 = getelementptr inbounds nuw i8, ptr %31, i64 24
  %33 = load i64, ptr %32, align 8, !tbaa !17
  %34 = and i64 %33, 2
  %.not.i.i.i = icmp eq i64 %34, 0
  %35 = getelementptr i8, ptr %31, i64 32
  br i1 %.not.i.i.i, label %36, label %rb_io_buffer_type_allocate.exit.i

36:                                               ; preds = %rb_class_of.exit.i
  %37 = load ptr, ptr %35, align 8, !tbaa !21
  br label %rb_io_buffer_type_allocate.exit.i

rb_io_buffer_type_allocate.exit.i:                ; preds = %36, %rb_class_of.exit.i
  %38 = phi ptr [ %37, %36 ], [ %35, %rb_class_of.exit.i ]
  %39 = getelementptr inbounds nuw i8, ptr %38, i64 24
  tail call void @llvm.memset.p0.i64(ptr noundef nonnull align 8 dereferenceable(16) %38, i8 0, i64 16, i1 false)
  store i64 4, ptr %39, align 8, !tbaa !7
  %40 = tail call ptr @rb_check_typeddata(i64 noundef %30, ptr noundef nonnull @rb_io_buffer_type) #25
  %41 = getelementptr inbounds nuw i8, ptr %7, i64 16
  %42 = load i32, ptr %41, align 8, !tbaa !15
  %43 = and i32 %42, 128
  %44 = getelementptr inbounds nuw i8, ptr %40, i64 16
  %45 = load i32, ptr %44, align 8, !tbaa !15
  %46 = or i32 %45, %43
  store i32 %46, ptr %44, align 8, !tbaa !15
  %47 = load ptr, ptr %7, align 8, !tbaa !14
  %48 = getelementptr i8, ptr %47, i64 %8
  store ptr %48, ptr %40, align 8, !tbaa !14
  %49 = getelementptr inbounds nuw i8, ptr %40, i64 8
  store i64 %9, ptr %49, align 8, !tbaa !16
  %50 = getelementptr inbounds nuw i8, ptr %7, i64 24
  %51 = load i64, ptr %50, align 8, !tbaa !7
  %.not.i = icmp eq i64 %51, 4
  %52 = getelementptr inbounds nuw i8, ptr %40, i64 24
  br i1 %.not.i, label %58, label %53

53:                                               ; preds = %rb_io_buffer_type_allocate.exit.i
  store i64 %51, ptr %52, align 8, !tbaa !22
  %54 = icmp eq i64 %51, 0
  %55 = and i64 %51, 7
  %56 = icmp ne i64 %55, 0
  %57 = or i1 %54, %56
  br i1 %57, label %rb_io_buffer_slice.exit, label %rb_obj_write.exit.sink.split.i

58:                                               ; preds = %rb_io_buffer_type_allocate.exit.i
  store i64 %2, ptr %52, align 8, !tbaa !22
  br i1 %18, label %rb_io_buffer_slice.exit, label %rb_obj_write.exit.sink.split.i

rb_obj_write.exit.sink.split.i:                   ; preds = %58, %53
  %.sink.i = phi i64 [ %51, %53 ], [ %2, %58 ]
  tail call void @rb_gc_writebarrier(i64 noundef %30, i64 noundef %.sink.i) #25
  br label %rb_io_buffer_slice.exit

rb_io_buffer_slice.exit:                          ; preds = %53, %58, %rb_obj_write.exit.sink.split.i
  call void @llvm.lifetime.end.p0(i64 8, ptr nonnull %5) #25
  call void @llvm.lifetime.end.p0(i64 8, ptr nonnull %4) #25
  ret i64 %30
}